target datalayout = "e-m:e-p270:32:32-p271:32:32-p272:64:64-i64:64-i128:128-f80:128-n8:16:32:64-S128"
target triple = "x86_64-unknown-linux-gnu"

%struct.MemoryRegionOps = type { ptr, ptr, ptr, ptr, i32, %struct.anon, %struct.anon.2 }
%struct.anon = type { i32, i32, i8, ptr }
%struct.anon.2 = type { i32, i32, i8 }
%struct.QTailQLink = type { ptr, ptr }
%struct.AHCIState = type { ptr, ptr, %struct.AHCIControlRegs, %struct.MemoryRegion, %struct.MemoryRegion, i32, i32, i32, ptr, ptr }
%struct.AHCIControlRegs = type { i32, i32, i32, i32, i32 }
%struct.MemoryRegion = type { %struct.Object, i8, i8, i8, i8, i8, i8, i8, i8, i8, i8, ptr, ptr, ptr, ptr, ptr, ptr, i32, i128, i64, ptr, i64, i8, i8, i8, i8, i8, ptr, i64, i32, %union.anon, %union.anon.0, %union.anon.1, ptr, i32, ptr, ptr, i8 }
%struct.Object = type { ptr, ptr, ptr, i32, ptr }
%union.anon = type { %struct.QTailQLink }
%union.anon.0 = type { %struct.QTailQLink }
%union.anon.1 = type { %struct.QTailQLink }
%struct.ResettableState = type { i32, i8, i8 }
%struct.MemReentrancyGuard = type { i8 }
%struct.DeviceState = type { %struct.Object, ptr, ptr, i8, i8, i64, ptr, i32, i8, ptr, %struct.NamedGPIOListHead, %struct.NamedClockListHead, %struct.BusStateHead, i32, i32, i32, %struct.ResettableState, ptr, %struct.MemReentrancyGuard }
%struct.NamedGPIOListHead = type { ptr }
%struct.NamedClockListHead = type { ptr }
%struct.BusStateHead = type { ptr }
%struct.SysbusAHCIState = type { %struct.SysBusDevice, %struct.AHCIState, i32 }
%struct.SysBusDevice = type { %struct.DeviceState, i32, [32 x %struct.anon.9], i32, [32 x i32] }
%struct.anon.9 = type { i64, ptr }

@ahci_mem_ops = internal constant %struct.MemoryRegionOps { ptr @ahci_mem_read, ptr @ahci_mem_write, ptr null, ptr null, i32 2, %struct.anon zeroinitializer, %struct.anon.2 zeroinitializer }, align 8
@.str = private unnamed_addr constant [5 x i8] c"ahci\00", align 1
@ahci_idp_ops = internal constant %struct.MemoryRegionOps { ptr @ahci_idp_read, ptr @ahci_idp_write, ptr null, ptr null, i32 2, %struct.anon zeroinitializer, %struct.anon.2 zeroinitializer }, align 8
@.str.1 = private unnamed_addr constant [9 x i8] c"ahci-idp\00", align 1
@.str.137 = private unnamed_addr constant [101 x i8] c"/home/dtcxzyw/WorkSpace/Projects/compilers/llvm-opt-benchmark/bench/qemu/qemu/include/hw/qdev-core.h\00", align 1
@.str.230 = private unnamed_addr constant [12 x i8] c"sysbus-ahci\00", align 1
@.str.231 = private unnamed_addr constant [15 x i8] c"sys-bus-device\00", align 1
@.str.232 = private unnamed_addr constant [100 x i8] c"/home/dtcxzyw/WorkSpace/Projects/compilers/llvm-opt-benchmark/bench/qemu/qemu/include/hw/ide/ahci.h\00", align 1
@__func__.SYSBUS_AHCI = private unnamed_addr constant [12 x i8] c"SYSBUS_AHCI\00", align 1
@.str.233 = private unnamed_addr constant [98 x i8] c"/home/dtcxzyw/WorkSpace/Projects/compilers/llvm-opt-benchmark/bench/qemu/qemu/include/hw/sysbus.h\00", align 1
@__func__.SYS_BUS_DEVICE = private unnamed_addr constant [15 x i8] c"SYS_BUS_DEVICE\00", align 1
@.str.234 = private unnamed_addr constant [7 x i8] c"device\00", align 1
@__func__.DEVICE = private unnamed_addr constant [7 x i8] c"DEVICE\00", align 1

; Function Attrs: nounwind sspstrong uwtable
define dso_local void @ahci_init(ptr noundef %s, ptr noundef %qdev) #0 {
entry:
  %s.addr = alloca ptr, align 8
  %qdev.addr = alloca ptr, align 8
  store ptr %s, ptr %s.addr, align 8
  store ptr %qdev, ptr %qdev.addr, align 8
  %0 = load ptr, ptr %qdev.addr, align 8
  %1 = load ptr, ptr %s.addr, align 8
  %container = getelementptr inbounds %struct.AHCIState, ptr %1, i32 0, i32 0
  store ptr %0, ptr %container, align 16
  %2 = load ptr, ptr %s.addr, align 8
  %mem = getelementptr inbounds %struct.AHCIState, ptr %2, i32 0, i32 3
  %3 = load ptr, ptr %qdev.addr, align 8
  %4 = load ptr, ptr %s.addr, align 8
  call void @memory_region_init_io(ptr noundef %mem, ptr noundef %3, ptr noundef @ahci_mem_ops, ptr noundef %4, ptr noundef @.str, i64 noundef 4096)
  %5 = load ptr, ptr %s.addr, align 8
  %idp = getelementptr inbounds %struct.AHCIState, ptr %5, i32 0, i32 4
  %6 = load ptr, ptr %qdev.addr, align 8
  %7 = load ptr, ptr %s.addr, align 8
  call void @memory_region_init_io(ptr noundef %idp, ptr noundef %6, ptr noundef @ahci_idp_ops, ptr noundef %7, ptr noundef @.str.1, i64 noundef 32)
  ret void
}

; Function Attrs: nounwind sspstrong uwtable
define internal ptr @DEVICE(ptr noundef %obj) #0 {
entry:
  %obj.addr = alloca ptr, align 8
  store ptr %obj, ptr %obj.addr, align 8
  %0 = load ptr, ptr %obj.addr, align 8
  %call = call ptr @object_dynamic_cast_assert(ptr noundef %0, ptr noundef @.str.234, ptr noundef @.str.137, i32 noundef 77, ptr noundef @__func__.DEVICE)
  ret ptr %call
}

; Function Attrs: nounwind sspstrong uwtable
define internal ptr @SYS_BUS_DEVICE(ptr noundef %obj) #0 {
entry:
  %obj.addr = alloca ptr, align 8
  store ptr %obj, ptr %obj.addr, align 8
  %0 = load ptr, ptr %obj.addr, align 8
  %call = call ptr @object_dynamic_cast_assert(ptr noundef %0, ptr noundef @.str.231, ptr noundef @.str.233, i32 noundef 20, ptr noundef @__func__.SYS_BUS_DEVICE)
  ret ptr %call
}

; Function Attrs: nounwind sspstrong uwtable
define internal ptr @SYSBUS_AHCI(ptr noundef %obj) #0 {
entry:
  %obj.addr = alloca ptr, align 8
  store ptr %obj, ptr %obj.addr, align 8
  %0 = load ptr, ptr %obj.addr, align 8
  %call = call ptr @object_dynamic_cast_assert(ptr noundef %0, ptr noundef @.str.230, ptr noundef @.str.232, i32 noundef 62, ptr noundef @__func__.SYSBUS_AHCI)
  ret ptr %call
}

; Function Attrs: nounwind sspstrong uwtable
define internal void @sysbus_ahci_init(ptr noundef %obj) #0 {
entry:
  %obj.addr = alloca ptr, align 8
  %s = alloca ptr, align 8
  %sbd = alloca ptr, align 8
  store ptr %obj, ptr %obj.addr, align 8
  %0 = load ptr, ptr %obj.addr, align 8
  %call = call ptr @SYSBUS_AHCI(ptr noundef %0)
  store ptr %call, ptr %s, align 8
  %1 = load ptr, ptr %obj.addr, align 8
  %call1 = call ptr @SYS_BUS_DEVICE(ptr noundef %1)
  store ptr %call1, ptr %sbd, align 8
  %2 = load ptr, ptr %s, align 8
  %ahci = getelementptr inbounds %struct.SysbusAHCIState, ptr %2, i32 0, i32 1
  %3 = load ptr, ptr %obj.addr, align 8
  %call2 = call ptr @DEVICE(ptr noundef %3)
  call void @ahci_init(ptr noundef %ahci, ptr noundef %call2)
  %4 = load ptr, ptr %sbd, align 8
  %5 = load ptr, ptr %s, align 8
  %ahci3 = getelementptr inbounds %struct.SysbusAHCIState, ptr %5, i32 0, i32 1
  %mem = getelementptr inbounds %struct.AHCIState, ptr %ahci3, i32 0, i32 3
  call void @sysbus_init_mmio(ptr noundef %4, ptr noundef %mem)
  %6 = load ptr, ptr %sbd, align 8
  %7 = load ptr, ptr %s, align 8
  %ahci4 = getelementptr inbounds %struct.SysbusAHCIState, ptr %7, i32 0, i32 1
  %irq = getelementptr inbounds %struct.AHCIState, ptr %ahci4, i32 0, i32 8
  call void @sysbus_init_irq(ptr noundef %6, ptr noundef %irq)
  ret void
}