; Function Attrs: nounwind sspstrong uwtable
define internal void @sysbus_ahci_init(ptr noundef %obj) #0 {
entry:
  %call.i = tail call ptr @object_dynamic_cast_assert(ptr noundef %obj, ptr noundef nonnull @.str.230, ptr noundef nonnull @.str.232, i32 noundef 62, ptr noundef nonnull @__func__.SYSBUS_AHCI) #12
  %call.i6 = tail call ptr @object_dynamic_cast_assert(ptr noundef %obj, ptr noundef nonnull @.str.231, ptr noundef nonnull @.str.233, i32 noundef 20, ptr noundef nonnull @__func__.SYS_BUS_DEVICE) #12
  %ahci = getelementptr inbounds nuw i8, ptr %call.i, i64 816
  %call.i7 = tail call ptr @object_dynamic_cast_assert(ptr noundef %obj, ptr noundef nonnull @.str.234, ptr noundef nonnull @.str.137, i32 noundef 77, ptr noundef nonnull @__func__.DEVICE) #12
  store ptr %call.i7, ptr %ahci, align 16
  %mem.i = getelementptr inbounds nuw i8, ptr %call.i, i64 864
  tail call void @memory_region_init_io(ptr noundef nonnull %mem.i, ptr noundef %call.i7, ptr noundef nonnull @ahci_mem_ops, ptr noundef nonnull %ahci, ptr noundef nonnull @.str, i64 noundef 4096) #12
  %idp.i = getelementptr inbounds nuw i8, ptr %call.i, i64 1136
  tail call void @memory_region_init_io(ptr noundef nonnull %idp.i, ptr noundef %call.i7, ptr noundef nonnull @ahci_idp_ops, ptr noundef nonnull %ahci, ptr noundef nonnull @.str.1, i64 noundef 32) #12
  tail call void @sysbus_init_mmio(ptr noundef %call.i6, ptr noundef nonnull %mem.i) #12
  %irq = getelementptr inbounds nuw i8, ptr %call.i, i64 1424
  tail call void @sysbus_init_irq(ptr noundef %call.i6, ptr noundef nonnull %irq) #12
  ret void
}